; Function Attrs: nounwind uwtable
define i32 @pmix_bfrops_base_unpack_devtype(ptr noundef %0, ptr noundef %1, ptr noundef %2, ptr noundef %3, i16 noundef zeroext %4) local_unnamed_addr #0 {
  %6 = load i32, ptr getelementptr inbounds nuw (i8, ptr @pmix_bfrops_base_framework, i64 76), align 4, !tbaa !7
  %or.cond = icmp ult i32 %6, 64
  br i1 %or.cond, label %7, label %14

7:                                                ; preds = %5
  %8 = zext nneg i32 %6 to i64
  %9 = getelementptr inbounds nuw [0 x %struct.pmix_output_desc_t], ptr @pmix_output_info, i64 0, i64 %8, i32 2
  %10 = load i32, ptr %9, align 4, !tbaa !19
  %11 = icmp sgt i32 %10, 19
  br i1 %11, label %12, label %14

12:                                               ; preds = %7
  %13 = load i32, ptr %3, align 4, !tbaa !3
  tail call void (i32, ptr, ...) @pmix_output(i32 noundef %6, ptr noundef nonnull @.str.41, i32 noundef %13) #10
  br label %14

14:                                               ; preds = %5, %7, %12
  %15 = getelementptr inbounds nuw i8, ptr %0, i64 128
  %16 = load i32, ptr %15, align 8, !tbaa !26
  %.not.i = icmp sgt i32 %16, 15
  br i1 %.not.i, label %pmix_pointer_array_get_item.exit, label %pmix_pointer_array_get_item.exit.thread, !prof !29

pmix_pointer_array_get_item.exit:                 ; preds = %14
  %17 = getelementptr inbounds nuw i8, ptr %0, i64 152
  %18 = load ptr, ptr %17, align 8, !tbaa !30
  %19 = getelementptr inbounds nuw i8, ptr %18, i64 120
  %20 = load ptr, ptr %19, align 8, !tbaa !31
  %21 = icmp eq ptr %20, null
  br i1 %21, label %pmix_pointer_array_get_item.exit.thread, label %22

22:                                               ; preds = %pmix_pointer_array_get_item.exit
  %23 = getelementptr inbounds nuw i8, ptr %20, i64 144
  %24 = load ptr, ptr %23, align 8, !tbaa !32
  %25 = tail call i32 %24(ptr noundef nonnull %0, ptr noundef %1, ptr noundef %2, ptr noundef %3, i16 noundef zeroext 15) #10
  br label %pmix_pointer_array_get_item.exit.thread

pmix_pointer_array_get_item.exit.thread:          ; preds = %14, %pmix_pointer_array_get_item.exit, %22
  %.0 = phi i32 [ %25, %22 ], [ -16, %pmix_pointer_array_get_item.exit ], [ -16, %14 ]
  ret i32 %.0
}